target datalayout = "e-m:e-p270:32:32-p271:32:32-p272:64:64-i64:64-i128:128-f80:128-n8:16:32:64-S128"
target triple = "x86_64-pc-linux-gnu"

%struct.numeric = type { i32, i32, i32, i32, i32, ptr, ptr }

; Function Attrs: nounwind uwtable
define internal i32 @cmp_abs(ptr noundef %0, ptr noundef %1) #0 {
  %3 = alloca i32, align 4
  %4 = alloca ptr, align 8
  %5 = alloca ptr, align 8
  %6 = alloca i32, align 4
  %7 = alloca i32, align 4
  %8 = alloca i32, align 4
  %9 = alloca i32, align 4
  %10 = alloca i32, align 4
  %11 = alloca i32, align 4
  store ptr %0, ptr %4, align 8
  store ptr %1, ptr %5, align 8
  call void @llvm.lifetime.start.p0(i64 4, ptr %6) #8
  store i32 0, ptr %6, align 4
  call void @llvm.lifetime.start.p0(i64 4, ptr %7) #8
  store i32 0, ptr %7, align 4
  call void @llvm.lifetime.start.p0(i64 4, ptr %8) #8
  %12 = load ptr, ptr %4, align 8
  %13 = getelementptr inbounds nuw %struct.numeric, ptr %12, i32 0, i32 1
  %14 = load i32, ptr %13, align 4
  store i32 %14, ptr %8, align 4
  call void @llvm.lifetime.start.p0(i64 4, ptr %9) #8
  %15 = load ptr, ptr %5, align 8
  %16 = getelementptr inbounds nuw %struct.numeric, ptr %15, i32 0, i32 1
  %17 = load i32, ptr %16, align 4
  store i32 %17, ptr %9, align 4
  call void @llvm.lifetime.start.p0(i64 4, ptr %10) #8
  br label %18

18:                                               ; preds = %42, %2
  %19 = load i32, ptr %8, align 4
  %20 = load i32, ptr %9, align 4
  %21 = icmp sgt i32 %19, %20
  br i1 %21, label %22, label %28

22:                                               ; preds = %18
  %23 = load i32, ptr %6, align 4
  %24 = load ptr, ptr %4, align 8
  %25 = getelementptr inbounds nuw %struct.numeric, ptr %24, i32 0, i32 0
  %26 = load i32, ptr %25, align 8
  %27 = icmp slt i32 %23, %26
  br label %28

28:                                               ; preds = %22, %18
  %29 = phi i1 [ false, %18 ], [ %27, %22 ]
  br i1 %29, label %30, label %45

30:                                               ; preds = %28
  %31 = load ptr, ptr %4, align 8
  %32 = getelementptr inbounds nuw %struct.numeric, ptr %31, i32 0, i32 6
  %33 = load ptr, ptr %32, align 8
  %34 = load i32, ptr %6, align 4
  %35 = add i32 %34, 1
  store i32 %35, ptr %6, align 4
  %36 = sext i32 %34 to i64
  %37 = getelementptr inbounds i8, ptr %33, i64 %36
  %38 = load i8, ptr %37, align 1
  %39 = zext i8 %38 to i32
  %40 = icmp ne i32 %39, 0
  br i1 %40, label %41, label %42

41:                                               ; preds = %30
  store i32 1, ptr %3, align 4
  store i32 1, ptr %11, align 4
  br label %162

42:                                               ; preds = %30
  %43 = load i32, ptr %8, align 4
  %44 = add i32 %43, -1
  store i32 %44, ptr %8, align 4
  br label %18, !llvm.loop !18

45:                                               ; preds = %28
  br label %46

46:                                               ; preds = %70, %45
  %47 = load i32, ptr %9, align 4
  %48 = load i32, ptr %8, align 4
  %49 = icmp sgt i32 %47, %48
  br i1 %49, label %50, label %56

50:                                               ; preds = %46
  %51 = load i32, ptr %7, align 4
  %52 = load ptr, ptr %5, align 8
  %53 = getelementptr inbounds nuw %struct.numeric, ptr %52, i32 0, i32 0
  %54 = load i32, ptr %53, align 8
  %55 = icmp slt i32 %51, %54
  br label %56

56:                                               ; preds = %50, %46
  %57 = phi i1 [ false, %46 ], [ %55, %50 ]
  br i1 %57, label %58, label %73

58:                                               ; preds = %56
  %59 = load ptr, ptr %5, align 8
  %60 = getelementptr inbounds nuw %struct.numeric, ptr %59, i32 0, i32 6
  %61 = load ptr, ptr %60, align 8
  %62 = load i32, ptr %7, align 4
  %63 = add i32 %62, 1
  store i32 %63, ptr %7, align 4
  %64 = sext i32 %62 to i64
  %65 = getelementptr inbounds i8, ptr %61, i64 %64
  %66 = load i8, ptr %65, align 1
  %67 = zext i8 %66 to i32
  %68 = icmp ne i32 %67, 0
  br i1 %68, label %69, label %70

69:                                               ; preds = %58
  store i32 -1, ptr %3, align 4
  store i32 1, ptr %11, align 4
  br label %162

70:                                               ; preds = %58
  %71 = load i32, ptr %9, align 4
  %72 = add i32 %71, -1
  store i32 %72, ptr %9, align 4
  br label %46, !llvm.loop !19

73:                                               ; preds = %56
  %74 = load i32, ptr %8, align 4
  %75 = load i32, ptr %9, align 4
  %76 = icmp eq i32 %74, %75
  br i1 %76, label %77, label %121

77:                                               ; preds = %73
  br label %78

78:                                               ; preds = %119, %77
  %79 = load i32, ptr %6, align 4
  %80 = load ptr, ptr %4, align 8
  %81 = getelementptr inbounds nuw %struct.numeric, ptr %80, i32 0, i32 0
  %82 = load i32, ptr %81, align 8
  %83 = icmp slt i32 %79, %82
  br i1 %83, label %84, label %90

84:                                               ; preds = %78
  %85 = load i32, ptr %7, align 4
  %86 = load ptr, ptr %5, align 8
  %87 = getelementptr inbounds nuw %struct.numeric, ptr %86, i32 0, i32 0
  %88 = load i32, ptr %87, align 8
  %89 = icmp slt i32 %85, %88
  br label %90

90:                                               ; preds = %84, %78
  %91 = phi i1 [ false, %78 ], [ %89, %84 ]
  br i1 %91, label %92, label %120

92:                                               ; preds = %90
  %93 = load ptr, ptr %4, align 8
  %94 = getelementptr inbounds nuw %struct.numeric, ptr %93, i32 0, i32 6
  %95 = load ptr, ptr %94, align 8
  %96 = load i32, ptr %6, align 4
  %97 = add i32 %96, 1
  store i32 %97, ptr %6, align 4
  %98 = sext i32 %96 to i64
  %99 = getelementptr inbounds i8, ptr %95, i64 %98
  %100 = load i8, ptr %99, align 1
  %101 = zext i8 %100 to i32
  %102 = load ptr, ptr %5, align 8
  %103 = getelementptr inbounds nuw %struct.numeric, ptr %102, i32 0, i32 6
  %104 = load ptr, ptr %103, align 8
  %105 = load i32, ptr %7, align 4
  %106 = add i32 %105, 1
  store i32 %106, ptr %7, align 4
  %107 = sext i32 %105 to i64
  %108 = getelementptr inbounds i8, ptr %104, i64 %107
  %109 = load i8, ptr %108, align 1
  %110 = zext i8 %109 to i32
  %111 = sub i32 %101, %110
  store i32 %111, ptr %10, align 4
  %112 = load i32, ptr %10, align 4
  %113 = icmp ne i32 %112, 0
  br i1 %113, label %114, label %119

114:                                              ; preds = %92
  %115 = load i32, ptr %10, align 4
  %116 = icmp sgt i32 %115, 0
  br i1 %116, label %117, label %118

117:                                              ; preds = %114
  store i32 1, ptr %3, align 4
  store i32 1, ptr %11, align 4
  br label %162

118:                                              ; preds = %114
  store i32 -1, ptr %3, align 4
  store i32 1, ptr %11, align 4
  br label %162

119:                                              ; preds = %92
  br label %78, !llvm.loop !20

120:                                              ; preds = %90
  br label %121

121:                                              ; preds = %120, %73
  br label %122

122:                                              ; preds = %140, %121
  %123 = load i32, ptr %6, align 4
  %124 = load ptr, ptr %4, align 8
  %125 = getelementptr inbounds nuw %struct.numeric, ptr %124, i32 0, i32 0
  %126 = load i32, ptr %125, align 8
  %127 = icmp slt i32 %123, %126
  br i1 %127, label %128, label %141

128:                                              ; preds = %122
  %129 = load ptr, ptr %4, align 8
  %130 = getelementptr inbounds nuw %struct.numeric, ptr %129, i32 0, i32 6
  %131 = load ptr, ptr %130, align 8
  %132 = load i32, ptr %6, align 4
  %133 = add i32 %132, 1
  store i32 %133, ptr %6, align 4
  %134 = sext i32 %132 to i64
  %135 = getelementptr inbounds i8, ptr %131, i64 %134
  %136 = load i8, ptr %135, align 1
  %137 = zext i8 %136 to i32
  %138 = icmp ne i32 %137, 0
  br i1 %138, label %139, label %140

139:                                              ; preds = %128
  store i32 1, ptr %3, align 4
  store i32 1, ptr %11, align 4
  br label %162

140:                                              ; preds = %128
  br label %122, !llvm.loop !21

141:                                              ; preds = %122
  br label %142

142:                                              ; preds = %160, %141
  %143 = load i32, ptr %7, align 4
  %144 = load ptr, ptr %5, align 8
  %145 = getelementptr inbounds nuw %struct.numeric, ptr %144, i32 0, i32 0
  %146 = load i32, ptr %145, align 8
  %147 = icmp slt i32 %143, %146
  br i1 %147, label %148, label %161

148:                                              ; preds = %142
  %149 = load ptr, ptr %5, align 8
  %150 = getelementptr inbounds nuw %struct.numeric, ptr %149, i32 0, i32 6
  %151 = load ptr, ptr %150, align 8
  %152 = load i32, ptr %7, align 4
  %153 = add i32 %152, 1
  store i32 %153, ptr %7, align 4
  %154 = sext i32 %152 to i64
  %155 = getelementptr inbounds i8, ptr %151, i64 %154
  %156 = load i8, ptr %155, align 1
  %157 = zext i8 %156 to i32
  %158 = icmp ne i32 %157, 0
  br i1 %158, label %159, label %160

159:                                              ; preds = %148
  store i32 -1, ptr %3, align 4
  store i32 1, ptr %11, align 4
  br label %162

160:                                              ; preds = %148
  br label %142, !llvm.loop !22

161:                                              ; preds = %142
  store i32 0, ptr %3, align 4
  store i32 1, ptr %11, align 4
  br label %162

162:                                              ; preds = %161, %159, %139, %118, %117, %69, %41
  call void @llvm.lifetime.end.p0(i64 4, ptr %10) #8
  call void @llvm.lifetime.end.p0(i64 4, ptr %9) #8
  call void @llvm.lifetime.end.p0(i64 4, ptr %8) #8
  call void @llvm.lifetime.end.p0(i64 4, ptr %7) #8
  call void @llvm.lifetime.end.p0(i64 4, ptr %6) #8
  %163 = load i32, ptr %3, align 4
  ret i32 %163
}