; Function Attrs: nofree norecurse nosync nounwind memory(read, inaccessiblemem: none) uwtable
define internal fastcc range(i32 -1, 2) i32 @cmp_abs(ptr noundef readonly captures(none) %0, ptr noundef readonly captures(none) %1) unnamed_addr #7 {
  %3 = getelementptr inbounds nuw i8, ptr %0, i64 4
  %4 = load i32, ptr %3, align 4
  %5 = getelementptr inbounds nuw i8, ptr %1, i64 4
  %6 = load i32, ptr %5, align 4
  %7 = icmp sgt i32 %4, %6
  br i1 %7, label %.lr.ph, label %.critedge

.lr.ph:                                           ; preds = %2
  %8 = load i32, ptr %0, align 8
  %9 = getelementptr inbounds nuw i8, ptr %0, i64 32
  %smax = tail call i32 @llvm.smax.i32(i32 %8, i32 0)
  %10 = sub i32 %4, %6
  %11 = sub i32 %4, %smax
  %wide.trip.count = zext nneg i32 %smax to i64
  %wide.trip.count84 = zext i32 %10 to i64
  br label %12

12:                                               ; preds = %.lr.ph, %17
  %indvars.iv = phi i64 [ 0, %.lr.ph ], [ %indvars.iv.next, %17 ]
  %exitcond.not = icmp eq i64 %indvars.iv, %wide.trip.count
  br i1 %exitcond.not, label %.critedge, label %13

13:                                               ; preds = %12
  %14 = load ptr, ptr %9, align 8
  %15 = getelementptr inbounds nuw i8, ptr %14, i64 %indvars.iv
  %16 = load i8, ptr %15, align 1
  %.not51 = icmp eq i8 %16, 0
  br i1 %.not51, label %17, label %.loopexit

17:                                               ; preds = %13
  %indvars.iv.next = add nuw nsw i64 %indvars.iv, 1
  %exitcond85.not = icmp eq i64 %indvars.iv.next, %wide.trip.count84
  br i1 %exitcond85.not, label %.critedge2.thread, label %12, !llvm.loop !16

.critedge:                                        ; preds = %12, %2
  %.043.lcssa = phi i32 [ 0, %2 ], [ %smax, %12 ]
  %.041.lcssa = phi i32 [ %4, %2 ], [ %11, %12 ]
  %18 = icmp sgt i32 %6, %.041.lcssa
  br i1 %18, label %.lr.ph71, label %.critedge2

.lr.ph71:                                         ; preds = %.critedge
  %19 = load i32, ptr %1, align 8
  %20 = getelementptr inbounds nuw i8, ptr %1, i64 32
  %smax88 = tail call i32 @llvm.smax.i32(i32 %19, i32 0)
  %21 = sub i32 %6, %.041.lcssa
  %22 = sub i32 %6, %smax88
  %wide.trip.count90 = zext nneg i32 %smax88 to i64
  %wide.trip.count92 = zext i32 %21 to i64
  br label %23

23:                                               ; preds = %.lr.ph71, %28
  %indvars.iv86 = phi i64 [ 0, %.lr.ph71 ], [ %indvars.iv.next87, %28 ]
  %exitcond91.not = icmp eq i64 %indvars.iv86, %wide.trip.count90
  br i1 %exitcond91.not, label %.critedge2, label %24

24:                                               ; preds = %23
  %25 = load ptr, ptr %20, align 8
  %26 = getelementptr inbounds nuw i8, ptr %25, i64 %indvars.iv86
  %27 = load i8, ptr %26, align 1
  %.not50 = icmp eq i8 %27, 0
  br i1 %.not50, label %28, label %.loopexit

28:                                               ; preds = %24
  %indvars.iv.next87 = add nuw nsw i64 %indvars.iv86, 1
  %exitcond93.not = icmp eq i64 %indvars.iv.next87, %wide.trip.count92
  br i1 %exitcond93.not, label %.critedge2.thread, label %23, !llvm.loop !17

.critedge2.thread:                                ; preds = %17, %28
  %.043.lcssa116.ph = phi i32 [ %.043.lcssa, %28 ], [ %10, %17 ]
  %.042.lcssa.ph = phi i32 [ %21, %28 ], [ 0, %17 ]
  %.pre122 = load i32, ptr %0, align 8
  br label %.preheader53

.critedge2:                                       ; preds = %23, %.critedge
  %.042.lcssa = phi i32 [ 0, %.critedge ], [ %smax88, %23 ]
  %.040.lcssa = phi i32 [ %6, %.critedge ], [ %22, %23 ]
  %29 = icmp eq i32 %.041.lcssa, %.040.lcssa
  %.pre = load i32, ptr %0, align 8
  br i1 %29, label %.preheader53, label %.critedge4

.preheader53:                                     ; preds = %.critedge2.thread, %.critedge2
  %.pre125 = phi i32 [ %.pre122, %.critedge2.thread ], [ %.pre, %.critedge2 ]
  %.042.lcssa124 = phi i32 [ %.042.lcssa.ph, %.critedge2.thread ], [ %.042.lcssa, %.critedge2 ]
  %.043.lcssa116123 = phi i32 [ %.043.lcssa116.ph, %.critedge2.thread ], [ %.043.lcssa, %.critedge2 ]
  %30 = getelementptr inbounds nuw i8, ptr %0, i64 32
  %31 = getelementptr inbounds nuw i8, ptr %1, i64 32
  %32 = zext i32 %.043.lcssa116123 to i64
  %33 = zext i32 %.042.lcssa124 to i64
  %smax98 = tail call i32 @llvm.smax.i32(i32 %.043.lcssa116123, i32 %.pre125)
  br label %34

34:                                               ; preds = %.preheader53, %41
  %indvars.iv96 = phi i64 [ %33, %.preheader53 ], [ %indvars.iv.next97, %41 ]
  %indvars.iv94 = phi i64 [ %32, %.preheader53 ], [ %indvars.iv.next95, %41 ]
  %35 = trunc nuw i64 %indvars.iv94 to i32
  %36 = icmp sgt i32 %.pre125, %35
  %37 = trunc nuw i64 %indvars.iv96 to i32
  br i1 %36, label %38, label %.critedge4

38:                                               ; preds = %34
  %39 = load i32, ptr %1, align 8
  %40 = icmp sgt i32 %39, %37
  br i1 %40, label %41, label %.critedge4

41:                                               ; preds = %38
  %42 = load ptr, ptr %30, align 8
  %indvars.iv.next95 = add nuw nsw i64 %indvars.iv94, 1
  %43 = getelementptr inbounds nuw i8, ptr %42, i64 %indvars.iv94
  %44 = load i8, ptr %43, align 1
  %45 = load ptr, ptr %31, align 8
  %indvars.iv.next97 = add nuw nsw i64 %indvars.iv96, 1
  %46 = getelementptr inbounds nuw i8, ptr %45, i64 %indvars.iv96
  %47 = load i8, ptr %46, align 1
  %.not49 = icmp eq i8 %44, %47
  br i1 %.not49, label %34, label %48, !llvm.loop !18

48:                                               ; preds = %41
  %49 = icmp ugt i8 %44, %47
  %. = select i1 %49, i32 1, i32 -1
  br label %.loopexit

.critedge4:                                       ; preds = %38, %34, %.critedge2
  %.pre126 = phi i32 [ %.pre, %.critedge2 ], [ %.pre125, %34 ], [ %.pre125, %38 ]
  %.144 = phi i32 [ %.043.lcssa, %.critedge2 ], [ %35, %38 ], [ %smax98, %34 ]
  %.1 = phi i32 [ %.042.lcssa, %.critedge2 ], [ %37, %34 ], [ %37, %38 ]
  %50 = getelementptr inbounds nuw i8, ptr %0, i64 32
  %51 = sext i32 %.144 to i64
  %smax105 = tail call i32 @llvm.smax.i32(i32 %.144, i32 %.pre126)
  %wide.trip.count106 = sext i32 %smax105 to i64
  br label %52

52:                                               ; preds = %56, %.critedge4
  %indvars.iv102 = phi i64 [ %indvars.iv.next103, %56 ], [ %51, %.critedge4 ]
  %exitcond107.not = icmp eq i64 %indvars.iv102, %wide.trip.count106
  br i1 %exitcond107.not, label %.preheader, label %56

.preheader:                                       ; preds = %52
  %53 = getelementptr inbounds nuw i8, ptr %1, i64 32
  %54 = load i32, ptr %1, align 8
  %55 = sext i32 %.1 to i64
  %smax111 = tail call i32 @llvm.smax.i32(i32 %.1, i32 %54)
  %wide.trip.count112 = sext i32 %smax111 to i64
  br label %60

56:                                               ; preds = %52
  %57 = load ptr, ptr %50, align 8
  %indvars.iv.next103 = add nsw i64 %indvars.iv102, 1
  %58 = getelementptr inbounds i8, ptr %57, i64 %indvars.iv102
  %59 = load i8, ptr %58, align 1
  %.not48 = icmp eq i8 %59, 0
  br i1 %.not48, label %52, label %.loopexit, !llvm.loop !19

60:                                               ; preds = %.preheader, %61
  %indvars.iv108 = phi i64 [ %55, %.preheader ], [ %indvars.iv.next109, %61 ]
  %exitcond113.not = icmp eq i64 %indvars.iv108, %wide.trip.count112
  br i1 %exitcond113.not, label %.loopexit, label %61

61:                                               ; preds = %60
  %62 = load ptr, ptr %53, align 8
  %indvars.iv.next109 = add nsw i64 %indvars.iv108, 1
  %63 = getelementptr inbounds i8, ptr %62, i64 %indvars.iv108
  %64 = load i8, ptr %63, align 1
  %.not = icmp eq i8 %64, 0
  br i1 %.not, label %60, label %.loopexit, !llvm.loop !20

.loopexit:                                        ; preds = %13, %24, %56, %60, %61, %48
  %.0 = phi i32 [ %., %48 ], [ 0, %60 ], [ -1, %61 ], [ 1, %56 ], [ -1, %24 ], [ 1, %13 ]
  ret i32 %.0
}